target datalayout = "e-m:e-p270:32:32-p271:32:32-p272:64:64-i64:64-i128:128-f80:128-n8:16:32:64-S128"
target triple = "x86_64-pc-linux-gnu"

@.str = private unnamed_addr constant [34 x i8] c"../openssl/crypto/cms/cms_smime.c\00", align 1
@__func__.cms_copy_content = private unnamed_addr constant [17 x i8] c"cms_copy_content\00", align 1

; Function Attrs: nounwind uwtable
define internal ptr @cms_get_text_bio(ptr noundef %0, i32 noundef %1) #0 {
  %3 = alloca ptr, align 8
  %4 = alloca i32, align 4
  %5 = alloca ptr, align 8
  store ptr %0, ptr %3, align 8, !tbaa !8
  store i32 %1, ptr %4, align 4, !tbaa !10
  call void @llvm.lifetime.start.p0(i64 8, ptr %5) #4
  %6 = load ptr, ptr %3, align 8, !tbaa !8
  %7 = icmp eq ptr %6, null
  br i1 %7, label %8, label %11

8:                                                ; preds = %2
  %9 = call ptr @BIO_s_null()
  %10 = call ptr @BIO_new(ptr noundef %9)
  store ptr %10, ptr %5, align 8, !tbaa !8
  br label %23

11:                                               ; preds = %2
  %12 = load i32, ptr %4, align 4, !tbaa !10
  %13 = and i32 %12, 1
  %14 = icmp ne i32 %13, 0
  br i1 %14, label %15, label %20

15:                                               ; preds = %11
  %16 = call ptr @BIO_s_mem()
  %17 = call ptr @BIO_new(ptr noundef %16)
  store ptr %17, ptr %5, align 8, !tbaa !8
  %18 = load ptr, ptr %5, align 8, !tbaa !8
  %19 = call i64 @BIO_ctrl(ptr noundef %18, i32 noundef 130, i64 noundef 0, ptr noundef null)
  br label %22

20:                                               ; preds = %11
  %21 = load ptr, ptr %3, align 8, !tbaa !8
  store ptr %21, ptr %5, align 8, !tbaa !8
  br label %22

22:                                               ; preds = %20, %15
  br label %23

23:                                               ; preds = %22, %8
  %24 = load ptr, ptr %5, align 8, !tbaa !8
  call void @llvm.lifetime.end.p0(i64 8, ptr %5) #4
  ret ptr %24
}

; Function Attrs: nounwind uwtable
define internal i32 @cms_copy_content(ptr noundef %0, ptr noundef %1, i32 noundef %2) #0 {
  %4 = alloca ptr, align 8
  %5 = alloca ptr, align 8
  %6 = alloca i32, align 4
  %7 = alloca [4096 x i8], align 16
  %8 = alloca i32, align 4
  %9 = alloca i32, align 4
  %10 = alloca ptr, align 8
  store ptr %0, ptr %4, align 8, !tbaa !8
  store ptr %1, ptr %5, align 8, !tbaa !8
  store i32 %2, ptr %6, align 4, !tbaa !10
  call void @llvm.lifetime.start.p0(i64 4096, ptr %7) #4
  call void @llvm.lifetime.start.p0(i64 4, ptr %8) #4
  store i32 0, ptr %8, align 4, !tbaa !10
  call void @llvm.lifetime.start.p0(i64 4, ptr %9) #4
  call void @llvm.lifetime.start.p0(i64 8, ptr %10) #4
  %11 = load ptr, ptr %4, align 8, !tbaa !8
  %12 = load i32, ptr %6, align 4, !tbaa !10
  %13 = call ptr @cms_get_text_bio(ptr noundef %11, i32 noundef %12)
  store ptr %13, ptr %10, align 8, !tbaa !8
  %14 = load ptr, ptr %10, align 8, !tbaa !8
  %15 = icmp eq ptr %14, null
  br i1 %15, label %16, label %17

16:                                               ; preds = %3
  call void @ERR_new()
  call void @ERR_set_debug(ptr noundef @.str, i32 noundef 43, ptr noundef @__func__.cms_copy_content)
  call void (i32, i32, ptr, ...) @ERR_set_error(i32 noundef 46, i32 noundef 524334, ptr noundef null)
  br label %63

17:                                               ; preds = %3
  br label %18

18:                                               ; preds = %50, %17
  %19 = load ptr, ptr %5, align 8, !tbaa !8
  %20 = getelementptr inbounds [4096 x i8], ptr %7, i64 0, i64 0
  %21 = call i32 @BIO_read(ptr noundef %19, ptr noundef %20, i32 noundef 4096)
  store i32 %21, ptr %9, align 4, !tbaa !10
  %22 = load i32, ptr %9, align 4, !tbaa !10
  %23 = icmp sle i32 %22, 0
  br i1 %23, label %24, label %39

24:                                               ; preds = %18
  %25 = load ptr, ptr %5, align 8, !tbaa !8
  %26 = call i32 @BIO_method_type(ptr noundef %25)
  %27 = icmp eq i32 %26, 522
  br i1 %27, label %28, label %34

28:                                               ; preds = %24
  %29 = load ptr, ptr %5, align 8, !tbaa !8
  %30 = call i64 @BIO_ctrl(ptr noundef %29, i32 noundef 113, i64 noundef 0, ptr noundef null)
  %31 = icmp sle i64 %30, 0
  br i1 %31, label %32, label %33

32:                                               ; preds = %28
  br label %63

33:                                               ; preds = %28
  br label %34

34:                                               ; preds = %33, %24
  %35 = load i32, ptr %9, align 4, !tbaa !10
  %36 = icmp slt i32 %35, 0
  br i1 %36, label %37, label %38

37:                                               ; preds = %34
  br label %63

38:                                               ; preds = %34
  br label %51

39:                                               ; preds = %18
  %40 = load ptr, ptr %10, align 8, !tbaa !8
  %41 = icmp ne ptr %40, null
  br i1 %41, label %42, label %50

42:                                               ; preds = %39
  %43 = load ptr, ptr %10, align 8, !tbaa !8
  %44 = getelementptr inbounds [4096 x i8], ptr %7, i64 0, i64 0
  %45 = load i32, ptr %9, align 4, !tbaa !10
  %46 = call i32 @BIO_write(ptr noundef %43, ptr noundef %44, i32 noundef %45)
  %47 = load i32, ptr %9, align 4, !tbaa !10
  %48 = icmp ne i32 %46, %47
  br i1 %48, label %49, label %50

49:                                               ; preds = %42
  br label %63

50:                                               ; preds = %42, %39
  br label %18

51:                                               ; preds = %38
  %52 = load i32, ptr %6, align 4, !tbaa !10
  %53 = and i32 %52, 1
  %54 = icmp ne i32 %53, 0
  br i1 %54, label %55, label %62

55:                                               ; preds = %51
  %56 = load ptr, ptr %10, align 8, !tbaa !8
  %57 = load ptr, ptr %4, align 8, !tbaa !8
  %58 = call i32 @SMIME_text(ptr noundef %56, ptr noundef %57)
  %59 = icmp ne i32 %58, 0
  br i1 %59, label %61, label %60

60:                                               ; preds = %55
  call void @ERR_new()
  call void @ERR_set_debug(ptr noundef @.str, i32 noundef 66, ptr noundef @__func__.cms_copy_content)
  call void (i32, i32, ptr, ...) @ERR_set_error(i32 noundef 46, i32 noundef 140, ptr noundef null)
  br label %63

61:                                               ; preds = %55
  br label %62

62:                                               ; preds = %61, %51
  store i32 1, ptr %8, align 4, !tbaa !10
  br label %63

63:                                               ; preds = %62, %60, %49, %37, %32, %16
  %64 = load ptr, ptr %10, align 8, !tbaa !8
  %65 = load ptr, ptr %4, align 8, !tbaa !8
  %66 = icmp ne ptr %64, %65
  br i1 %66, label %67, label %70

67:                                               ; preds = %63
  %68 = load ptr, ptr %10, align 8, !tbaa !8
  %69 = call i32 @BIO_free(ptr noundef %68)
  br label %70

70:                                               ; preds = %67, %63
  %71 = load i32, ptr %8, align 4, !tbaa !10
  call void @llvm.lifetime.end.p0(i64 8, ptr %10) #4
  call void @llvm.lifetime.end.p0(i64 4, ptr %9) #4
  call void @llvm.lifetime.end.p0(i64 4, ptr %8) #4
  call void @llvm.lifetime.end.p0(i64 4096, ptr %7) #4
  ret i32 %71
}