; Function Attrs: nounwind uwtable
define internal fastcc range(i32 0, 2) i32 @cms_copy_content(ptr noundef %0, ptr noundef nonnull %1, i32 noundef %2) unnamed_addr #0 {
  %4 = alloca [4096 x i8], align 16
  call void @llvm.lifetime.start.p0(i64 4096, ptr nonnull %4) #4
  %5 = icmp eq ptr %0, null
  br i1 %5, label %6, label %9

6:                                                ; preds = %3
  %7 = tail call ptr @BIO_s_null() #4
  %8 = tail call ptr @BIO_new(ptr noundef %7) #4
  br label %cms_get_text_bio.exit

9:                                                ; preds = %3
  %10 = and i32 %2, 1
  %.not.i = icmp eq i32 %10, 0
  br i1 %.not.i, label %.preheader.preheader, label %11

11:                                               ; preds = %9
  %12 = tail call ptr @BIO_s_mem() #4
  %13 = tail call ptr @BIO_new(ptr noundef %12) #4
  %14 = tail call i64 @BIO_ctrl(ptr noundef %13, i32 noundef 130, i64 noundef 0, ptr noundef null) #4
  br label %cms_get_text_bio.exit

cms_get_text_bio.exit:                            ; preds = %6, %11
  %.0.i = phi ptr [ %8, %6 ], [ %13, %11 ]
  %15 = icmp eq ptr %.0.i, null
  br i1 %15, label %16, label %.preheader.preheader

.preheader.preheader:                             ; preds = %9, %cms_get_text_bio.exit
  %.0.i29 = phi ptr [ %.0.i, %cms_get_text_bio.exit ], [ %0, %9 ]
  br label %.preheader

16:                                               ; preds = %cms_get_text_bio.exit
  tail call void @ERR_new() #4
  tail call void @ERR_set_debug(ptr noundef nonnull @.str, i32 noundef 43, ptr noundef nonnull @__func__.cms_copy_content) #4
  tail call void (i32, i32, ptr, ...) @ERR_set_error(i32 noundef 46, i32 noundef 524334, ptr noundef null) #4
  br label %.loopexit

.preheader:                                       ; preds = %.preheader.preheader, %27
  %17 = call i32 @BIO_read(ptr noundef nonnull %1, ptr noundef nonnull %4, i32 noundef 4096) #4
  %18 = icmp slt i32 %17, 1
  br i1 %18, label %19, label %27

19:                                               ; preds = %.preheader
  %20 = call i32 @BIO_method_type(ptr noundef nonnull %1) #4
  %21 = icmp eq i32 %20, 522
  br i1 %21, label %22, label %26

22:                                               ; preds = %19
  %23 = call i64 @BIO_ctrl(ptr noundef nonnull %1, i32 noundef 113, i64 noundef 0, ptr noundef null) #4
  %24 = icmp slt i64 %23, 1
  %25 = icmp ne i32 %17, 0
  %or.cond = or i1 %25, %24
  br i1 %or.cond, label %.loopexit, label %29

26:                                               ; preds = %19
  %.old1 = icmp slt i32 %17, 0
  br i1 %.old1, label %.loopexit, label %29

27:                                               ; preds = %.preheader
  %28 = call i32 @BIO_write(ptr noundef nonnull %.0.i29, ptr noundef nonnull %4, i32 noundef %17) #4
  %.not = icmp eq i32 %28, %17
  br i1 %.not, label %.preheader, label %.loopexit

29:                                               ; preds = %22, %26
  %30 = and i32 %2, 1
  %.not22 = icmp eq i32 %30, 0
  br i1 %.not22, label %.loopexit, label %31

31:                                               ; preds = %29
  %32 = call i32 @SMIME_text(ptr noundef nonnull %.0.i29, ptr noundef %0) #4
  %.not23 = icmp eq i32 %32, 0
  br i1 %.not23, label %33, label %.loopexit

33:                                               ; preds = %31
  call void @ERR_new() #4
  call void @ERR_set_debug(ptr noundef nonnull @.str, i32 noundef 66, ptr noundef nonnull @__func__.cms_copy_content) #4
  call void (i32, i32, ptr, ...) @ERR_set_error(i32 noundef 46, i32 noundef 140, ptr noundef null) #4
  br label %.loopexit

.loopexit:                                        ; preds = %27, %29, %31, %26, %22, %33, %16
  %.0.i28 = phi ptr [ null, %16 ], [ %.0.i29, %22 ], [ %.0.i29, %33 ], [ %.0.i29, %26 ], [ %.0.i29, %31 ], [ %.0.i29, %29 ], [ %.0.i29, %27 ]
  %.0 = phi i32 [ 0, %16 ], [ 0, %22 ], [ 0, %33 ], [ 0, %26 ], [ 1, %31 ], [ 1, %29 ], [ 0, %27 ]
  %.not24 = icmp eq ptr %.0.i28, %0
  br i1 %.not24, label %36, label %34

34:                                               ; preds = %.loopexit
  %35 = call i32 @BIO_free(ptr noundef %.0.i28) #4
  br label %36

36:                                               ; preds = %34, %.loopexit
  call void @llvm.lifetime.end.p0(i64 4096, ptr nonnull %4) #4
  ret i32 %.0
}